target datalayout = "e-m:e-p270:32:32-p271:32:32-p272:64:64-i64:64-i128:128-f80:128-n8:16:32:64-S128"
target triple = "x86_64-unknown-linux-gnu"

%"class.llvh::StringRef" = type { ptr, i64 }
%"class.llvh::SmallPtrSet" = type { %"class.llvh::SmallPtrSetImpl.base", [4 x ptr] }
%"class.llvh::SmallPtrSetImpl.base" = type { %"class.llvh::SmallPtrSetImplBase.base" }
%"class.llvh::SmallPtrSetImplBase.base" = type <{ ptr, ptr, i32, i32, i32 }>
%"class.llvh::Twine" = type <{ %"union.llvh::Twine::Child", %"union.llvh::Twine::Child", i8, i8, [6 x i8] }>
%"union.llvh::Twine::Child" = type { ptr }
%"class.llvh::cl::Option" = type <{ ptr, i32, i16, [2 x i8], i32, i32, %"class.llvh::StringRef", %"class.llvh::StringRef", %"class.llvh::StringRef", ptr, %"class.llvh::SmallPtrSet", i8, [7 x i8] }>

@.str.5 = private unnamed_addr constant [34 x i8] c"may only occur zero or one times!\00", align 1
@.str.6 = private unnamed_addr constant [29 x i8] c"must occur exactly one time!\00", align 1

; Function Attrs: mustprogress nounwind uwtable
define linkonce_odr hidden void @_ZN4llvh5TwineC2EPKc(ptr noundef nonnull align 8 dereferenceable(18) %this, ptr noundef %Str) unnamed_addr #0 comdat align 2 {
entry:
  %this.addr = alloca ptr, align 8
  %Str.addr = alloca ptr, align 8
  store ptr %this, ptr %this.addr, align 8
  store ptr %Str, ptr %Str.addr, align 8
  %this1 = load ptr, ptr %this.addr, align 8
  %LHSKind = getelementptr inbounds %"class.llvh::Twine", ptr %this1, i32 0, i32 2
  store i8 1, ptr %LHSKind, align 8
  %RHSKind = getelementptr inbounds %"class.llvh::Twine", ptr %this1, i32 0, i32 3
  store i8 1, ptr %RHSKind, align 1
  %0 = load ptr, ptr %Str.addr, align 8
  %arrayidx = getelementptr inbounds i8, ptr %0, i64 0
  %1 = load i8, ptr %arrayidx, align 1
  %conv = sext i8 %1 to i32
  %cmp = icmp ne i32 %conv, 0
  br i1 %cmp, label %if.then, label %if.else

if.then:                                          ; preds = %entry
  %2 = load ptr, ptr %Str.addr, align 8
  %LHS2 = getelementptr inbounds %"class.llvh::Twine", ptr %this1, i32 0, i32 0
  store ptr %2, ptr %LHS2, align 8
  %LHSKind3 = getelementptr inbounds %"class.llvh::Twine", ptr %this1, i32 0, i32 2
  store i8 3, ptr %LHSKind3, align 8
  br label %if.end

if.else:                                          ; preds = %entry
  %LHSKind4 = getelementptr inbounds %"class.llvh::Twine", ptr %this1, i32 0, i32 2
  store i8 1, ptr %LHSKind4, align 8
  br label %if.end

if.end:                                           ; preds = %if.else, %if.then
  ret void
}

; Function Attrs: mustprogress nounwind uwtable
define linkonce_odr hidden noundef i32 @_ZNK4llvh2cl6Option21getNumOccurrencesFlagEv(ptr noundef nonnull align 8 dereferenceable(145) %this) #0 comdat align 2 {
entry:
  %this.addr = alloca ptr, align 8
  store ptr %this, ptr %this.addr, align 8
  %this1 = load ptr, ptr %this.addr, align 8
  %Occurrences = getelementptr inbounds %"class.llvh::cl::Option", ptr %this1, i32 0, i32 2
  %bf.load = load i16, ptr %Occurrences, align 4
  %bf.clear = and i16 %bf.load, 7
  %bf.cast = zext i16 %bf.clear to i32
  ret i32 %bf.cast
}

; Function Attrs: mustprogress nounwind uwtable
define hidden noundef zeroext i1 @_ZN4llvh2cl6Option13addOccurrenceEjNS_9StringRefES2_b(ptr noundef nonnull align 8 dereferenceable(145) %this, i32 noundef %pos, ptr %ArgName.coerce0, i64 %ArgName.coerce1, ptr %Value.coerce0, i64 %Value.coerce1, i1 noundef zeroext %MultiArg) unnamed_addr #0 align 2 {
entry:
  %retval = alloca i1, align 1
  %ArgName = alloca %"class.llvh::StringRef", align 8
  %Value = alloca %"class.llvh::StringRef", align 8
  %this.addr = alloca ptr, align 8
  %pos.addr = alloca i32, align 4
  %MultiArg.addr = alloca i8, align 1
  %ref.tmp = alloca %"class.llvh::Twine", align 8
  %agg.tmp = alloca %"class.llvh::StringRef", align 8
  %ref.tmp11 = alloca %"class.llvh::Twine", align 8
  %agg.tmp12 = alloca %"class.llvh::StringRef", align 8
  %agg.tmp17 = alloca %"class.llvh::StringRef", align 8
  %agg.tmp18 = alloca %"class.llvh::StringRef", align 8
  %0 = getelementptr inbounds { ptr, i64 }, ptr %ArgName, i32 0, i32 0
  store ptr %ArgName.coerce0, ptr %0, align 8
  %1 = getelementptr inbounds { ptr, i64 }, ptr %ArgName, i32 0, i32 1
  store i64 %ArgName.coerce1, ptr %1, align 8
  %2 = getelementptr inbounds { ptr, i64 }, ptr %Value, i32 0, i32 0
  store ptr %Value.coerce0, ptr %2, align 8
  %3 = getelementptr inbounds { ptr, i64 }, ptr %Value, i32 0, i32 1
  store i64 %Value.coerce1, ptr %3, align 8
  store ptr %this, ptr %this.addr, align 8
  store i32 %pos, ptr %pos.addr, align 4
  %frombool = zext i1 %MultiArg to i8
  store i8 %frombool, ptr %MultiArg.addr, align 1
  %this1 = load ptr, ptr %this.addr, align 8
  %4 = load i8, ptr %MultiArg.addr, align 1
  %tobool = trunc i8 %4 to i1
  br i1 %tobool, label %if.end, label %if.then

if.then:                                          ; preds = %entry
  %NumOccurrences = getelementptr inbounds %"class.llvh::cl::Option", ptr %this1, i32 0, i32 1
  %5 = load i32, ptr %NumOccurrences, align 8
  %inc = add nsw i32 %5, 1
  store i32 %inc, ptr %NumOccurrences, align 8
  br label %if.end

if.end:                                           ; preds = %if.then, %entry
  %call = call noundef i32 @_ZNK4llvh2cl6Option21getNumOccurrencesFlagEv(ptr noundef nonnull align 8 dereferenceable(145) %this1)
  switch i32 %call, label %sw.epilog [
    i32 0, label %sw.bb
    i32 2, label %sw.bb7
    i32 3, label %sw.bb16
    i32 1, label %sw.bb16
    i32 4, label %sw.bb16
  ]

sw.bb:                                            ; preds = %if.end
  %NumOccurrences2 = getelementptr inbounds %"class.llvh::cl::Option", ptr %this1, i32 0, i32 1
  %6 = load i32, ptr %NumOccurrences2, align 8
  %cmp = icmp sgt i32 %6, 1
  br i1 %cmp, label %if.then3, label %if.end6

if.then3:                                         ; preds = %sw.bb
  call void @_ZN4llvh5TwineC2EPKc(ptr noundef nonnull align 8 dereferenceable(18) %ref.tmp, ptr noundef @.str.5)
  call void @llvm.memcpy.p0.p0.i64(ptr align 8 %agg.tmp, ptr align 8 %ArgName, i64 16, i1 false)
  %call4 = call noundef nonnull align 8 dereferenceable(36) ptr @_ZN4llvh4errsEv()
  %7 = getelementptr inbounds { ptr, i64 }, ptr %agg.tmp, i32 0, i32 0
  %8 = load ptr, ptr %7, align 8
  %9 = getelementptr inbounds { ptr, i64 }, ptr %agg.tmp, i32 0, i32 1
  %10 = load i64, ptr %9, align 8
  %call5 = call noundef zeroext i1 @_ZN4llvh2cl6Option5errorERKNS_5TwineENS_9StringRefERNS_11raw_ostreamE(ptr noundef nonnull align 8 dereferenceable(145) %this1, ptr noundef nonnull align 8 dereferenceable(18) %ref.tmp, ptr %8, i64 %10, ptr noundef nonnull align 8 dereferenceable(36) %call4)
  store i1 %call5, ptr %retval, align 1
  br label %return

if.end6:                                          ; preds = %sw.bb
  br label %sw.epilog

sw.bb7:                                           ; preds = %if.end
  %NumOccurrences8 = getelementptr inbounds %"class.llvh::cl::Option", ptr %this1, i32 0, i32 1
  %11 = load i32, ptr %NumOccurrences8, align 8
  %cmp9 = icmp sgt i32 %11, 1
  br i1 %cmp9, label %if.then10, label %if.end15

if.then10:                                        ; preds = %sw.bb7
  call void @_ZN4llvh5TwineC2EPKc(ptr noundef nonnull align 8 dereferenceable(18) %ref.tmp11, ptr noundef @.str.6)
  call void @llvm.memcpy.p0.p0.i64(ptr align 8 %agg.tmp12, ptr align 8 %ArgName, i64 16, i1 false)
  %call13 = call noundef nonnull align 8 dereferenceable(36) ptr @_ZN4llvh4errsEv()
  %12 = getelementptr inbounds { ptr, i64 }, ptr %agg.tmp12, i32 0, i32 0
  %13 = load ptr, ptr %12, align 8
  %14 = getelementptr inbounds { ptr, i64 }, ptr %agg.tmp12, i32 0, i32 1
  %15 = load i64, ptr %14, align 8
  %call14 = call noundef zeroext i1 @_ZN4llvh2cl6Option5errorERKNS_5TwineENS_9StringRefERNS_11raw_ostreamE(ptr noundef nonnull align 8 dereferenceable(145) %this1, ptr noundef nonnull align 8 dereferenceable(18) %ref.tmp11, ptr %13, i64 %15, ptr noundef nonnull align 8 dereferenceable(36) %call13)
  store i1 %call14, ptr %retval, align 1
  br label %return

if.end15:                                         ; preds = %sw.bb7
  br label %sw.bb16

sw.bb16:                                          ; preds = %if.end15, %if.end, %if.end, %if.end
  br label %sw.epilog

sw.epilog:                                        ; preds = %sw.bb16, %if.end6, %if.end
  %16 = load i32, ptr %pos.addr, align 4
  call void @llvm.memcpy.p0.p0.i64(ptr align 8 %agg.tmp17, ptr align 8 %ArgName, i64 16, i1 false)
  call void @llvm.memcpy.p0.p0.i64(ptr align 8 %agg.tmp18, ptr align 8 %Value, i64 16, i1 false)
  %17 = getelementptr inbounds { ptr, i64 }, ptr %agg.tmp17, i32 0, i32 0
  %18 = load ptr, ptr %17, align 8
  %19 = getelementptr inbounds { ptr, i64 }, ptr %agg.tmp17, i32 0, i32 1
  %20 = load i64, ptr %19, align 8
  %21 = getelementptr inbounds { ptr, i64 }, ptr %agg.tmp18, i32 0, i32 0
  %22 = load ptr, ptr %21, align 8
  %23 = getelementptr inbounds { ptr, i64 }, ptr %agg.tmp18, i32 0, i32 1
  %24 = load i64, ptr %23, align 8
  %vtable = load ptr, ptr %this1, align 8
  %vfn = getelementptr inbounds ptr, ptr %vtable, i64 0
  %25 = load ptr, ptr %vfn, align 8
  %call19 = call noundef zeroext i1 %25(ptr noundef nonnull align 8 dereferenceable(145) %this1, i32 noundef %16, ptr %18, i64 %20, ptr %22, i64 %24)
  store i1 %call19, ptr %retval, align 1
  br label %return

return:                                           ; preds = %sw.epilog, %if.then10, %if.then3
  %26 = load i1, ptr %retval, align 1
  ret i1 %26
}