; Function Attrs: mustprogress nounwind uwtable
define hidden noundef zeroext i1 @_ZN4llvh2cl6Option13addOccurrenceEjNS_9StringRefES2_b(ptr noundef nonnull align 8 dereferenceable(145) %this, i32 noundef %pos, ptr %ArgName.coerce0, i64 %ArgName.coerce1, ptr %Value.coerce0, i64 %Value.coerce1, i1 noundef zeroext %MultiArg) unnamed_addr #0 align 2 {
entry:
  %ref.tmp = alloca %"class.llvh::Twine", align 8
  %ref.tmp11 = alloca %"class.llvh::Twine", align 8
  br i1 %MultiArg, label %if.end, label %if.then

if.then:                                          ; preds = %entry
  %NumOccurrences = getelementptr inbounds i8, ptr %this, i64 8
  %0 = load i32, ptr %NumOccurrences, align 8
  %inc = add nsw i32 %0, 1
  store i32 %inc, ptr %NumOccurrences, align 8
  br label %if.end

if.end:                                           ; preds = %if.then, %entry
  %Occurrences.i = getelementptr inbounds i8, ptr %this, i64 12
  %bf.load.i = load i16, ptr %Occurrences.i, align 4
  %bf.clear.i = and i16 %bf.load.i, 7
  switch i16 %bf.clear.i, label %sw.epilog [
    i16 0, label %sw.bb
    i16 2, label %sw.bb7
  ]

sw.bb:                                            ; preds = %if.end
  %NumOccurrences2 = getelementptr inbounds i8, ptr %this, i64 8
  %1 = load i32, ptr %NumOccurrences2, align 8
  %cmp = icmp sgt i32 %1, 1
  br i1 %cmp, label %if.then3, label %sw.epilog

if.then3:                                         ; preds = %sw.bb
  %LHSKind.i = getelementptr inbounds i8, ptr %ref.tmp, i64 16
  %RHSKind.i = getelementptr inbounds i8, ptr %ref.tmp, i64 17
  store i8 1, ptr %RHSKind.i, align 1
  store ptr @.str.5, ptr %ref.tmp, align 8
  store i8 3, ptr %LHSKind.i, align 8
  %call4 = tail call noundef nonnull align 8 dereferenceable(36) ptr @_ZN4llvh4errsEv() #27
  %call5 = call noundef zeroext i1 @_ZN4llvh2cl6Option5errorERKNS_5TwineENS_9StringRefERNS_11raw_ostreamE(ptr noundef nonnull align 8 dereferenceable(145) %this, ptr noundef nonnull align 8 dereferenceable(18) %ref.tmp, ptr %ArgName.coerce0, i64 %ArgName.coerce1, ptr noundef nonnull align 8 dereferenceable(36) %call4)
  br label %return

sw.bb7:                                           ; preds = %if.end
  %NumOccurrences8 = getelementptr inbounds i8, ptr %this, i64 8
  %2 = load i32, ptr %NumOccurrences8, align 8
  %cmp9 = icmp sgt i32 %2, 1
  br i1 %cmp9, label %if.then10, label %sw.epilog

if.then10:                                        ; preds = %sw.bb7
  %LHSKind.i3 = getelementptr inbounds i8, ptr %ref.tmp11, i64 16
  %RHSKind.i4 = getelementptr inbounds i8, ptr %ref.tmp11, i64 17
  store i8 1, ptr %RHSKind.i4, align 1
  store ptr @.str.6, ptr %ref.tmp11, align 8
  store i8 3, ptr %LHSKind.i3, align 8
  %call13 = tail call noundef nonnull align 8 dereferenceable(36) ptr @_ZN4llvh4errsEv() #27
  %call14 = call noundef zeroext i1 @_ZN4llvh2cl6Option5errorERKNS_5TwineENS_9StringRefERNS_11raw_ostreamE(ptr noundef nonnull align 8 dereferenceable(145) %this, ptr noundef nonnull align 8 dereferenceable(18) %ref.tmp11, ptr %ArgName.coerce0, i64 %ArgName.coerce1, ptr noundef nonnull align 8 dereferenceable(36) %call13)
  br label %return

sw.epilog:                                        ; preds = %sw.bb7, %sw.bb, %if.end
  %vtable = load ptr, ptr %this, align 8
  %3 = load ptr, ptr %vtable, align 8
  %call19 = tail call noundef zeroext i1 %3(ptr noundef nonnull align 8 dereferenceable(145) %this, i32 noundef %pos, ptr %ArgName.coerce0, i64 %ArgName.coerce1, ptr %Value.coerce0, i64 %Value.coerce1) #27
  br label %return

return:                                           ; preds = %sw.epilog, %if.then10, %if.then3
  %retval.0 = phi i1 [ %call19, %sw.epilog ], [ true, %if.then10 ], [ true, %if.then3 ]
  ret i1 %retval.0
}